(ipython_linked_list
LinkedList
p1
(dp2
S'length'
p3
I6
sS'head'
p4
(ipython_linked_list
Node
p5
(dp6
S'max_players'
p7
I4
sS'current_players'
p8
(lp9
I10
aI11
aI12
asS'id'
p10
I8
sS'next'
p11
(ipython_linked_list
Node
p12
(dp13
g7
I4
sg8
(lp14
I10
aI11
aI12
asg10
I8
sg11
(ipython_linked_list
Node
p15
(dp16
g7
I4
sg8
(lp17
I10
aI11
aI12
asg10
I8
sg11
(ipython_linked_list
Node
p18
(dp19
g7
I4
sg8
(lp20
I10
aI11
aI12
asg10
I8
sg11
(ipython_linked_list
Node
p21
(dp22
g7
I4
sg8
(lp23
I10
aI11
aI12
asg10
I8
sg11
(ipython_linked_list
Node
p24
(dp25
g7
I4
sg8
(lp26
I10
aI11
aI12
asg10
I8
sg11
Nsbsbsbsbsbsbsb.