(ipython_linked_list
LinkedList
p1
(dp2
S'length'
p3
I36
sS'head'
p4
(ipython_linked_list
Node
p5
(dp6
S'max_players'
p7
I2
sS'current_players'
p8
(lp9
I1
asS'id'
p10
I12
sS'next'
p11
(ipython_linked_list
Node
p12
(dp13
g7
I2
sg8
(lp14
I1
asg10
I12
sg11
(ipython_linked_list
Node
p15
(dp16
g7
I2
sg8
(lp17
I1
asg10
I13
sg11
(ipython_linked_list
Node
p18
(dp19
g7
I2
sg8
(lp20
I1
asg10
I13
sg11
(ipython_linked_list
Node
p21
(dp22
g7
I2
sg8
(lp23
I1
asg10
I1
sg11
(ipython_linked_list
Node
p24
(dp25
g7
I2
sg8
(lp26
I2
asg10
I2
sg11
(ipython_linked_list
Node
p27
(dp28
g7
I2
sg8
(lp29
I1
asg10
I10
sg11
(ipython_linked_list
Node
p30
(dp31
g7
I2
sg8
(lp32
I1
asg10
I11
sg11
(ipython_linked_list
Node
p33
(dp34
g7
I2
sg8
(lp35
I1
asg10
I12
sg11
(ipython_linked_list
Node
p36
(dp37
g7
I2
sg8
(lp38
I1
asg10
I13
sg11
(ipython_linked_list
Node
p39
(dp40
g7
I2
sg8
(lp41
I2
asg10
I14
sg11
(ipython_linked_list
Node
p42
(dp43
g7
I2
sg8
(lp44
I2
asg10
I15
sg11
(ipython_linked_list
Node
p45
(dp46
g7
I2
sg8
(lp47
I1
asg10
I1
sg11
(ipython_linked_list
Node
p48
(dp49
g7
I2
sg8
(lp50
I2
asg10
I2
sg11
(ipython_linked_list
Node
p51
(dp52
g7
I2
sg8
(lp53
I1
asg10
I10
sg11
(ipython_linked_list
Node
p54
(dp55
g7
I2
sg8
(lp56
I1
asg10
I11
sg11
(ipython_linked_list
Node
p57
(dp58
g7
I2
sg8
(lp59
I1
asg10
I12
sg11
(ipython_linked_list
Node
p60
(dp61
g7
I2
sg8
(lp62
I1
asg10
I13
sg11
(ipython_linked_list
Node
p63
(dp64
g7
I2
sg8
(lp65
I2
asg10
I14
sg11
(ipython_linked_list
Node
p66
(dp67
g7
I2
sg8
(lp68
I2
asg10
I15
sg11
(ipython_linked_list
Node
p69
(dp70
g7
I2
sg8
(lp71
I1
asg10
I1
sg11
(ipython_linked_list
Node
p72
(dp73
g7
I2
sg8
(lp74
I2
asg10
I2
sg11
(ipython_linked_list
Node
p75
(dp76
g7
I2
sg8
(lp77
I1
asg10
I10
sg11
(ipython_linked_list
Node
p78
(dp79
g7
I2
sg8
(lp80
I1
asg10
I11
sg11
(ipython_linked_list
Node
p81
(dp82
g7
I2
sg8
(lp83
I1
asg10
I12
sg11
(ipython_linked_list
Node
p84
(dp85
g7
I2
sg8
(lp86
I1
asg10
I13
sg11
(ipython_linked_list
Node
p87
(dp88
g7
I2
sg8
(lp89
I2
asg10
I14
sg11
(ipython_linked_list
Node
p90
(dp91
g7
I2
sg8
(lp92
I2
asg10
I15
sg11
(ipython_linked_list
Node
p93
(dp94
g7
I2
sg8
(lp95
I1
asg10
I1
sg11
(ipython_linked_list
Node
p96
(dp97
g7
I2
sg8
(lp98
I2
asg10
I2
sg11
(ipython_linked_list
Node
p99
(dp100
g7
I2
sg8
(lp101
I1
asg10
I10
sg11
(ipython_linked_list
Node
p102
(dp103
g7
I2
sg8
(lp104
I1
asg10
I11
sg11
(ipython_linked_list
Node
p105
(dp106
g7
I2
sg8
(lp107
I1
asg10
I12
sg11
(ipython_linked_list
Node
p108
(dp109
g7
I2
sg8
(lp110
I1
asg10
I13
sg11
(ipython_linked_list
Node
p111
(dp112
g7
I2
sg8
(lp113
I2
asg10
I14
sg11
(ipython_linked_list
Node
p114
(dp115
g7
I2
sg8
(lp116
I2
asg10
I15
sg11
Nsbsbsbsbsbsbsbsbsbsbsbsbsbsbsbsbsbsbsbsbsbsbsbsbsbsbsbsbsbsbsbsbsbsbsbsbsb.