(ipython_linked_list
LinkedList
p1
(dp2
S'length'
p3
I5
sS'head'
p4
(ipython_linked_list
Node
p5
(dp6
S'max_players'
p7
I4
sS'current_players'
p8
(lp9
I5
aI6
asS'id'
p10
I4
sS'next'
p11
(ipython_linked_list
Node
p12
(dp13
g7
I4
sg8
(lp14
I7
aI8
asg10
I6
sg11
(ipython_linked_list
Node
p15
(dp16
g7
I4
sg8
(lp17
I7
aI8
asg10
I6
sg11
(ipython_linked_list
Node
p18
(dp19
g7
I4
sg8
(lp20
I7
aI8
asg10
I6
sg11
(ipython_linked_list
Node
p21
(dp22
g7
I4
sg8
(lp23
I7
aI8
asg10
I6
sg11
Nsbsbsbsbsbsb.