(ipython_linked_list
LinkedList
p1
(dp2
S'length'
p3
I12
sS'head'
p4
(ipython_linked_list
Node
p5
(dp6
S'max_players'
p7
I4
sS'current_players'
p8
(lp9
I5
asS'id'
p10
I4
sS'next'
p11
(ipython_linked_list
Node
p12
(dp13
g7
I4
sg8
(lp14
I6
asg10
I5
sg11
(ipython_linked_list
Node
p15
(dp16
g7
I4
sg8
(lp17
I9
asg10
I7
sg11
(ipython_linked_list
Node
p18
(dp19
g7
I4
sg8
(lp20
I5
asg10
I4
sg11
(ipython_linked_list
Node
p21
(dp22
g7
I4
sg8
(lp23
I6
asg10
I5
sg11
(ipython_linked_list
Node
p24
(dp25
g7
I4
sg8
(lp26
I9
asg10
I7
sg11
(ipython_linked_list
Node
p27
(dp28
g7
I4
sg8
(lp29
I5
asg10
I4
sg11
(ipython_linked_list
Node
p30
(dp31
g7
I4
sg8
(lp32
I6
asg10
I5
sg11
(ipython_linked_list
Node
p33
(dp34
g7
I4
sg8
(lp35
I9
asg10
I7
sg11
(ipython_linked_list
Node
p36
(dp37
g7
I4
sg8
(lp38
I5
asg10
I4
sg11
(ipython_linked_list
Node
p39
(dp40
g7
I4
sg8
(lp41
I6
asg10
I5
sg11
(ipython_linked_list
Node
p42
(dp43
g7
I4
sg8
(lp44
I9
asg10
I7
sg11
Nsbsbsbsbsbsbsbsbsbsbsbsbsb.