(ipython_linked_list
LinkedList
p1
(dp2
S'length'
p3
I4
sS'head'
p4
(ipython_linked_list
Node
p5
(dp6
S'max_players'
p7
I2
sS'current_players'
p8
(lp9
I3
aI4
asS'id'
p10
I3
sS'next'
p11
(ipython_linked_list
Node
p12
(dp13
g7
I2
sg8
(lp14
I3
aI4
asg10
I3
sg11
(ipython_linked_list
Node
p15
(dp16
g7
I2
sg8
(lp17
I3
aI4
asg10
I3
sg11
(ipython_linked_list
Node
p18
(dp19
g7
I2
sg8
(lp20
I3
aI4
asg10
I3
sg11
Nsbsbsbsbsb.